target datalayout = "e-m:e-p270:32:32-p271:32:32-p272:64:64-i64:64-i128:128-f80:128-n8:16:32:64-S128"
target triple = "x86_64-pc-linux-gnu"

%struct.Vec_Int_t_ = type { i32, i32, ptr }
%struct.Vec_Wec_t_ = type { i32, i32, ptr }

; Function Attrs: inlinehint nounwind uwtable
define internal ptr @Vec_WecEntry(ptr noundef %0, i32 noundef %1) #1 {
  %3 = alloca ptr, align 8
  %4 = alloca i32, align 4
  store ptr %0, ptr %3, align 8, !tbaa !33
  store i32 %1, ptr %4, align 4, !tbaa !12
  %5 = load ptr, ptr %3, align 8, !tbaa !33
  %6 = getelementptr inbounds nuw %struct.Vec_Wec_t_, ptr %5, i32 0, i32 2
  %7 = load ptr, ptr %6, align 8, !tbaa !41
  %8 = load i32, ptr %4, align 4, !tbaa !12
  %9 = sext i32 %8 to i64
  %10 = getelementptr inbounds %struct.Vec_Int_t_, ptr %7, i64 %9
  ret ptr %10
}

; Function Attrs: inlinehint nounwind uwtable
define internal void @Vec_IntGrow(ptr noundef %0, i32 noundef %1) #1 {
  %3 = alloca ptr, align 8
  %4 = alloca i32, align 4
  store ptr %0, ptr %3, align 8, !tbaa !10
  store i32 %1, ptr %4, align 4, !tbaa !12
  %5 = load ptr, ptr %3, align 8, !tbaa !10
  %6 = getelementptr inbounds nuw %struct.Vec_Int_t_, ptr %5, i32 0, i32 0
  %7 = load i32, ptr %6, align 8, !tbaa !43
  %8 = load i32, ptr %4, align 4, !tbaa !12
  %9 = icmp sge i32 %7, %8
  br i1 %9, label %10, label %11

10:                                               ; preds = %2
  br label %36

11:                                               ; preds = %2
  %12 = load ptr, ptr %3, align 8, !tbaa !10
  %13 = getelementptr inbounds nuw %struct.Vec_Int_t_, ptr %12, i32 0, i32 2
  %14 = load ptr, ptr %13, align 8, !tbaa !44
  %15 = icmp ne ptr %14, null
  br i1 %15, label %16, label %24

16:                                               ; preds = %11
  %17 = load ptr, ptr %3, align 8, !tbaa !10
  %18 = getelementptr inbounds nuw %struct.Vec_Int_t_, ptr %17, i32 0, i32 2
  %19 = load ptr, ptr %18, align 8, !tbaa !44
  %20 = load i32, ptr %4, align 4, !tbaa !12
  %21 = sext i32 %20 to i64
  %22 = mul i64 4, %21
  %23 = call ptr @realloc(ptr noundef %19, i64 noundef %22) #13
  br label %29

24:                                               ; preds = %11
  %25 = load i32, ptr %4, align 4, !tbaa !12
  %26 = sext i32 %25 to i64
  %27 = mul i64 4, %26
  %28 = call noalias ptr @malloc(i64 noundef %27) #11
  br label %29

29:                                               ; preds = %24, %16
  %30 = phi ptr [ %23, %16 ], [ %28, %24 ]
  %31 = load ptr, ptr %3, align 8, !tbaa !10
  %32 = getelementptr inbounds nuw %struct.Vec_Int_t_, ptr %31, i32 0, i32 2
  store ptr %30, ptr %32, align 8, !tbaa !44
  %33 = load i32, ptr %4, align 4, !tbaa !12
  %34 = load ptr, ptr %3, align 8, !tbaa !10
  %35 = getelementptr inbounds nuw %struct.Vec_Int_t_, ptr %34, i32 0, i32 0
  store i32 %33, ptr %35, align 8, !tbaa !43
  br label %36

36:                                               ; preds = %29, %10
  ret void
}

; Function Attrs: inlinehint nounwind uwtable
define internal void @Vec_IntFree(ptr noundef %0) #1 {
  %2 = alloca ptr, align 8
  store ptr %0, ptr %2, align 8, !tbaa !10
  %3 = load ptr, ptr %2, align 8, !tbaa !10
  %4 = getelementptr inbounds nuw %struct.Vec_Int_t_, ptr %3, i32 0, i32 2
  %5 = load ptr, ptr %4, align 8, !tbaa !44
  %6 = icmp ne ptr %5, null
  br i1 %6, label %7, label %13

7:                                                ; preds = %1
  %8 = load ptr, ptr %2, align 8, !tbaa !10
  %9 = getelementptr inbounds nuw %struct.Vec_Int_t_, ptr %8, i32 0, i32 2
  %10 = load ptr, ptr %9, align 8, !tbaa !44
  call void @free(ptr noundef %10) #10
  %11 = load ptr, ptr %2, align 8, !tbaa !10
  %12 = getelementptr inbounds nuw %struct.Vec_Int_t_, ptr %11, i32 0, i32 2
  store ptr null, ptr %12, align 8, !tbaa !44
  br label %14

13:                                               ; preds = %1
  br label %14

14:                                               ; preds = %13, %7
  %15 = load ptr, ptr %2, align 8, !tbaa !10
  %16 = icmp ne ptr %15, null
  br i1 %16, label %17, label %19

17:                                               ; preds = %14
  %18 = load ptr, ptr %2, align 8, !tbaa !10
  call void @free(ptr noundef %18) #10
  store ptr null, ptr %2, align 8, !tbaa !10
  br label %20

19:                                               ; preds = %14
  br label %20

20:                                               ; preds = %19, %17
  ret void
}

; Function Attrs: nounwind uwtable
define i32 @Gia_ManMulFindNextEntry(ptr noundef %0, ptr noundef %1, i32 noundef %2) #0 {
  %4 = alloca i32, align 4
  %5 = alloca ptr, align 8
  %6 = alloca ptr, align 8
  %7 = alloca i32, align 4
  %8 = alloca i32, align 4
  %9 = alloca i32, align 4
  %10 = alloca ptr, align 8
  %11 = alloca i32, align 4
  %12 = alloca i32, align 4
  store ptr %0, ptr %5, align 8, !tbaa !33
  store ptr %1, ptr %6, align 8, !tbaa !10
  store i32 %2, ptr %7, align 4, !tbaa !12
  call void @llvm.lifetime.start.p0(i64 4, ptr %8) #10
  call void @llvm.lifetime.start.p0(i64 4, ptr %9) #10
  store i32 0, ptr %8, align 4, !tbaa !12
  br label %13

13:                                               ; preds = %58, %3
  %14 = load i32, ptr %8, align 4, !tbaa !12
  %15 = load ptr, ptr %6, align 8, !tbaa !10
  %16 = call i32 @Vec_IntSize(ptr noundef %15)
  %17 = icmp slt i32 %14, %16
  br i1 %17, label %18, label %22

18:                                               ; preds = %13
  %19 = load ptr, ptr %6, align 8, !tbaa !10
  %20 = load i32, ptr %8, align 4, !tbaa !12
  %21 = call i32 @Vec_IntEntry(ptr noundef %19, i32 noundef %20)
  store i32 %21, ptr %9, align 4, !tbaa !12
  br label %22

22:                                               ; preds = %18, %13
  %23 = phi i1 [ false, %13 ], [ true, %18 ]
  br i1 %23, label %24, label %61

24:                                               ; preds = %22
  call void @llvm.lifetime.start.p0(i64 8, ptr %10) #10
  %25 = load ptr, ptr %5, align 8, !tbaa !33
  %26 = load i32, ptr %9, align 4, !tbaa !12
  %27 = call ptr @Vec_WecEntry(ptr noundef %25, i32 noundef %26)
  store ptr %27, ptr %10, align 8, !tbaa !10
  %28 = load ptr, ptr %10, align 8, !tbaa !10
  %29 = call i32 @Vec_IntSize(ptr noundef %28)
  %30 = icmp eq i32 %29, 0
  br i1 %30, label %31, label %32

31:                                               ; preds = %24
  store i32 4, ptr %11, align 4
  br label %56

32:                                               ; preds = %24
  call void @llvm.lifetime.start.p0(i64 4, ptr %12) #10
  store i32 -1, ptr %12, align 4, !tbaa !12
  %33 = load ptr, ptr %10, align 8, !tbaa !10
  %34 = call i32 @Vec_IntEntry(ptr noundef %33, i32 noundef 1)
  %35 = load i32, ptr %7, align 4, !tbaa !12
  %36 = icmp eq i32 %34, %35
  br i1 %36, label %37, label %40

37:                                               ; preds = %32
  %38 = load ptr, ptr %10, align 8, !tbaa !10
  %39 = call i32 @Vec_IntEntry(ptr noundef %38, i32 noundef 2)
  store i32 %39, ptr %12, align 4, !tbaa !12
  br label %40

40:                                               ; preds = %37, %32
  %41 = load ptr, ptr %10, align 8, !tbaa !10
  %42 = call i32 @Vec_IntEntry(ptr noundef %41, i32 noundef 2)
  %43 = load i32, ptr %7, align 4, !tbaa !12
  %44 = icmp eq i32 %42, %43
  br i1 %44, label %45, label %48

45:                                               ; preds = %40
  %46 = load ptr, ptr %10, align 8, !tbaa !10
  %47 = call i32 @Vec_IntEntry(ptr noundef %46, i32 noundef 1)
  store i32 %47, ptr %12, align 4, !tbaa !12
  br label %48

48:                                               ; preds = %45, %40
  %49 = load i32, ptr %12, align 4, !tbaa !12
  %50 = icmp eq i32 %49, -1
  br i1 %50, label %51, label %52

51:                                               ; preds = %48
  store i32 4, ptr %11, align 4
  br label %55

52:                                               ; preds = %48
  %53 = load ptr, ptr %10, align 8, !tbaa !10
  call void @Vec_IntClear(ptr noundef %53)
  %54 = load i32, ptr %12, align 4, !tbaa !12
  store i32 %54, ptr %4, align 4
  store i32 1, ptr %11, align 4
  br label %55

55:                                               ; preds = %52, %51
  call void @llvm.lifetime.end.p0(i64 4, ptr %12) #10
  br label %56

56:                                               ; preds = %55, %31
  call void @llvm.lifetime.end.p0(i64 8, ptr %10) #10
  %57 = load i32, ptr %11, align 4
  switch i32 %57, label %62 [
    i32 4, label %58
  ]

58:                                               ; preds = %56
  %59 = load i32, ptr %8, align 4, !tbaa !12
  %60 = add nsw i32 %59, 1
  store i32 %60, ptr %8, align 4, !tbaa !12
  br label %13, !llvm.loop !72

61:                                               ; preds = %22
  store i32 -1, ptr %4, align 4
  store i32 1, ptr %11, align 4
  br label %62

62:                                               ; preds = %61, %56
  call void @llvm.lifetime.end.p0(i64 4, ptr %9) #10
  call void @llvm.lifetime.end.p0(i64 4, ptr %8) #10
  %63 = load i32, ptr %4, align 4
  ret i32 %63
}

; Function Attrs: inlinehint nounwind uwtable
define internal void @Vec_IntPush(ptr noundef %0, i32 noundef %1) #1 {
  %3 = alloca ptr, align 8
  %4 = alloca i32, align 4
  store ptr %0, ptr %3, align 8, !tbaa !10
  store i32 %1, ptr %4, align 4, !tbaa !12
  %5 = load ptr, ptr %3, align 8, !tbaa !10
  %6 = getelementptr inbounds nuw %struct.Vec_Int_t_, ptr %5, i32 0, i32 1
  %7 = load i32, ptr %6, align 4, !tbaa !42
  %8 = load ptr, ptr %3, align 8, !tbaa !10
  %9 = getelementptr inbounds nuw %struct.Vec_Int_t_, ptr %8, i32 0, i32 0
  %10 = load i32, ptr %9, align 8, !tbaa !43
  %11 = icmp eq i32 %7, %10
  br i1 %11, label %12, label %26

12:                                               ; preds = %2
  %13 = load ptr, ptr %3, align 8, !tbaa !10
  %14 = getelementptr inbounds nuw %struct.Vec_Int_t_, ptr %13, i32 0, i32 0
  %15 = load i32, ptr %14, align 8, !tbaa !43
  %16 = icmp slt i32 %15, 16
  br i1 %16, label %17, label %19

17:                                               ; preds = %12
  %18 = load ptr, ptr %3, align 8, !tbaa !10
  call void @Vec_IntGrow(ptr noundef %18, i32 noundef 16)
  br label %25

19:                                               ; preds = %12
  %20 = load ptr, ptr %3, align 8, !tbaa !10
  %21 = load ptr, ptr %3, align 8, !tbaa !10
  %22 = getelementptr inbounds nuw %struct.Vec_Int_t_, ptr %21, i32 0, i32 0
  %23 = load i32, ptr %22, align 8, !tbaa !43
  %24 = mul nsw i32 2, %23
  call void @Vec_IntGrow(ptr noundef %20, i32 noundef %24)
  br label %25

25:                                               ; preds = %19, %17
  br label %26

26:                                               ; preds = %25, %2
  %27 = load i32, ptr %4, align 4, !tbaa !12
  %28 = load ptr, ptr %3, align 8, !tbaa !10
  %29 = getelementptr inbounds nuw %struct.Vec_Int_t_, ptr %28, i32 0, i32 2
  %30 = load ptr, ptr %29, align 8, !tbaa !44
  %31 = load ptr, ptr %3, align 8, !tbaa !10
  %32 = getelementptr inbounds nuw %struct.Vec_Int_t_, ptr %31, i32 0, i32 1
  %33 = load i32, ptr %32, align 4, !tbaa !42
  %34 = add nsw i32 %33, 1
  store i32 %34, ptr %32, align 4, !tbaa !42
  %35 = sext i32 %33 to i64
  %36 = getelementptr inbounds i32, ptr %30, i64 %35
  store i32 %27, ptr %36, align 4, !tbaa !12
  ret void
}

; Function Attrs: inlinehint nounwind uwtable
define internal i32 @Vec_IntEntry(ptr noundef %0, i32 noundef %1) #1 {
  %3 = alloca ptr, align 8
  %4 = alloca i32, align 4
  store ptr %0, ptr %3, align 8, !tbaa !10
  store i32 %1, ptr %4, align 4, !tbaa !12
  %5 = load ptr, ptr %3, align 8, !tbaa !10
  %6 = getelementptr inbounds nuw %struct.Vec_Int_t_, ptr %5, i32 0, i32 2
  %7 = load ptr, ptr %6, align 8, !tbaa !44
  %8 = load i32, ptr %4, align 4, !tbaa !12
  %9 = sext i32 %8 to i64
  %10 = getelementptr inbounds i32, ptr %7, i64 %9
  %11 = load i32, ptr %10, align 4, !tbaa !12
  ret i32 %11
}

; Function Attrs: inlinehint nounwind uwtable
define internal i32 @Vec_IntSize(ptr noundef %0) #1 {
  %2 = alloca ptr, align 8
  store ptr %0, ptr %2, align 8, !tbaa !10
  %3 = load ptr, ptr %2, align 8, !tbaa !10
  %4 = getelementptr inbounds nuw %struct.Vec_Int_t_, ptr %3, i32 0, i32 1
  %5 = load i32, ptr %4, align 4, !tbaa !42
  ret i32 %5
}

; Function Attrs: inlinehint nounwind uwtable
define internal void @Vec_IntClear(ptr noundef %0) #1 {
  %2 = alloca ptr, align 8
  store ptr %0, ptr %2, align 8, !tbaa !10
  %3 = load ptr, ptr %2, align 8, !tbaa !10
  %4 = getelementptr inbounds nuw %struct.Vec_Int_t_, ptr %3, i32 0, i32 1
  store i32 0, ptr %4, align 4, !tbaa !42
  ret void
}

; Function Attrs: nounwind uwtable
define void @Gia_ManMulFindArg1(ptr noundef %0, ptr noundef %1, ptr noundef %2) #0 {
  %4 = alloca ptr, align 8
  %5 = alloca ptr, align 8
  %6 = alloca ptr, align 8
  %7 = alloca ptr, align 8
  %8 = alloca i32, align 4
  %9 = alloca i32, align 4
  %10 = alloca i32, align 4
  store ptr %0, ptr %4, align 8, !tbaa !33
  store ptr %1, ptr %5, align 8, !tbaa !10
  store ptr %2, ptr %6, align 8, !tbaa !10
  call void @llvm.lifetime.start.p0(i64 8, ptr %7) #10
  %11 = load ptr, ptr %4, align 8, !tbaa !33
  %12 = load ptr, ptr %5, align 8, !tbaa !10
  %13 = call ptr @Gia_ManMulFindCounts(ptr noundef %11, ptr noundef %12)
  store ptr %13, ptr %7, align 8, !tbaa !10
  call void @llvm.lifetime.start.p0(i64 4, ptr %8) #10
  store i32 -1, ptr %8, align 4, !tbaa !12
  call void @llvm.lifetime.start.p0(i64 4, ptr %9) #10
  call void @llvm.lifetime.start.p0(i64 4, ptr %10) #10
  %14 = load ptr, ptr %6, align 8, !tbaa !10
  call void @Vec_IntClear(ptr noundef %14)
  store i32 0, ptr %10, align 4, !tbaa !12
  br label %15

15:                                               ; preds = %39, %3
  %16 = load i32, ptr %10, align 4, !tbaa !12
  %17 = add nsw i32 %16, 1
  %18 = load ptr, ptr %7, align 8, !tbaa !10
  %19 = call i32 @Vec_IntSize(ptr noundef %18)
  %20 = icmp slt i32 %17, %19
  br i1 %20, label %21, label %30

21:                                               ; preds = %15
  %22 = load ptr, ptr %7, align 8, !tbaa !10
  %23 = load i32, ptr %10, align 4, !tbaa !12
  %24 = call i32 @Vec_IntEntry(ptr noundef %22, i32 noundef %23)
  store i32 %24, ptr %8, align 4, !tbaa !12
  br i1 true, label %25, label %30

25:                                               ; preds = %21
  %26 = load ptr, ptr %7, align 8, !tbaa !10
  %27 = load i32, ptr %10, align 4, !tbaa !12
  %28 = add nsw i32 %27, 1
  %29 = call i32 @Vec_IntEntry(ptr noundef %26, i32 noundef %28)
  store i32 %29, ptr %9, align 4, !tbaa !12
  br label %30

30:                                               ; preds = %25, %21, %15
  %31 = phi i1 [ false, %21 ], [ false, %15 ], [ true, %25 ]
  br i1 %31, label %32, label %42

32:                                               ; preds = %30
  %33 = load i32, ptr %9, align 4, !tbaa !12
  %34 = icmp eq i32 %33, 1
  br i1 %34, label %35, label %38

35:                                               ; preds = %32
  %36 = load ptr, ptr %6, align 8, !tbaa !10
  %37 = load i32, ptr %8, align 4, !tbaa !12
  call void @Vec_IntPush(ptr noundef %36, i32 noundef %37)
  br label %42

38:                                               ; preds = %32
  br label %39

39:                                               ; preds = %38
  %40 = load i32, ptr %10, align 4, !tbaa !12
  %41 = add nsw i32 %40, 2
  store i32 %41, ptr %10, align 4, !tbaa !12
  br label %15, !llvm.loop !73

42:                                               ; preds = %35, %30
  br label %43

43:                                               ; preds = %49, %42
  %44 = load ptr, ptr %4, align 8, !tbaa !33
  %45 = load ptr, ptr %5, align 8, !tbaa !10
  %46 = load i32, ptr %8, align 4, !tbaa !12
  %47 = call i32 @Gia_ManMulFindNextEntry(ptr noundef %44, ptr noundef %45, i32 noundef %46)
  store i32 %47, ptr %8, align 4, !tbaa !12
  %48 = icmp ne i32 %47, -1
  br i1 %48, label %49, label %52

49:                                               ; preds = %43
  %50 = load ptr, ptr %6, align 8, !tbaa !10
  %51 = load i32, ptr %8, align 4, !tbaa !12
  call void @Vec_IntPush(ptr noundef %50, i32 noundef %51)
  br label %43, !llvm.loop !74

52:                                               ; preds = %43
  %53 = load ptr, ptr %7, align 8, !tbaa !10
  call void @Vec_IntFree(ptr noundef %53)
  call void @llvm.lifetime.end.p0(i64 4, ptr %10) #10
  call void @llvm.lifetime.end.p0(i64 4, ptr %9) #10
  call void @llvm.lifetime.end.p0(i64 4, ptr %8) #10
  call void @llvm.lifetime.end.p0(i64 8, ptr %7) #10
  ret void
}