; Function Attrs: nounwind uwtable
define void @Gia_ManMulFindArg1(ptr noundef readonly captures(none) %0, ptr noundef readonly captures(none) %1, ptr noundef captures(none) initializes((4, 8)) %2) local_unnamed_addr #0 {
  %4 = tail call ptr @Gia_ManMulFindCounts(ptr noundef %0, ptr noundef %1)
  %5 = getelementptr inbounds nuw i8, ptr %2, i64 4
  store i32 0, ptr %5, align 4, !tbaa !33
  %6 = getelementptr i8, ptr %4, i64 4
  %.val = load i32, ptr %6, align 4, !tbaa !33
  %7 = icmp sgt i32 %.val, 1
  br i1 %7, label %.lr.ph, label %.critedge

.lr.ph:                                           ; preds = %3
  %8 = getelementptr i8, ptr %4, i64 8
  %.val22 = load ptr, ptr %8, align 8, !tbaa !35
  br label %13

9:                                                ; preds = %13
  %indvars.iv.next46 = add nuw nsw i64 %indvars.iv45, 2
  %10 = trunc i64 %indvars.iv.next46 to i32
  %11 = or disjoint i32 %10, 1
  %12 = icmp slt i32 %11, %.val
  %indvars.iv.next = add nuw i64 %indvars.iv, 2
  br i1 %12, label %13, label %.critedge.loopexit, !llvm.loop !72

13:                                               ; preds = %.lr.ph, %9
  %indvars.iv45 = phi i64 [ 0, %.lr.ph ], [ %indvars.iv.next46, %9 ]
  %indvars.iv = phi i64 [ 1, %.lr.ph ], [ %indvars.iv.next, %9 ]
  %14 = getelementptr inbounds nuw i32, ptr %.val22, i64 %indvars.iv
  %15 = load i32, ptr %14, align 4, !tbaa !29
  %16 = icmp eq i32 %15, 1
  br i1 %16, label %17, label %9

17:                                               ; preds = %13
  %18 = getelementptr inbounds nuw i32, ptr %.val22, i64 %indvars.iv45
  %19 = load i32, ptr %18, align 4, !tbaa !29
  %20 = load i32, ptr %2, align 8, !tbaa !34
  %21 = icmp eq i32 %20, 0
  %22 = getelementptr inbounds nuw i8, ptr %2, i64 8
  %23 = load ptr, ptr %22, align 8, !tbaa !35
  br i1 %21, label %24, label %Vec_IntPush.exit

24:                                               ; preds = %17
  %.not9.i.i = icmp eq ptr %23, null
  br i1 %.not9.i.i, label %27, label %25

25:                                               ; preds = %24
  %26 = tail call dereferenceable_or_null(64) ptr @realloc(ptr noundef nonnull %23, i64 noundef 64) #20
  %.pre.pre = load i32, ptr %5, align 4, !tbaa !33
  br label %Vec_IntGrow.exit.i

27:                                               ; preds = %24
  %28 = tail call noalias dereferenceable_or_null(64) ptr @malloc(i64 noundef 64) #21
  br label %Vec_IntGrow.exit.i

Vec_IntGrow.exit.i:                               ; preds = %27, %25
  %.pre = phi i32 [ %.pre.pre, %25 ], [ 0, %27 ]
  %29 = phi ptr [ %26, %25 ], [ %28, %27 ]
  store ptr %29, ptr %22, align 8, !tbaa !35
  store i32 16, ptr %2, align 8, !tbaa !34
  br label %Vec_IntPush.exit

Vec_IntPush.exit:                                 ; preds = %17, %Vec_IntGrow.exit.i
  %30 = phi i32 [ %.pre, %Vec_IntGrow.exit.i ], [ 0, %17 ]
  %31 = phi ptr [ %29, %Vec_IntGrow.exit.i ], [ %23, %17 ]
  %32 = add nsw i32 %30, 1
  store i32 %32, ptr %5, align 4, !tbaa !33
  %33 = sext i32 %30 to i64
  %34 = getelementptr inbounds i32, ptr %31, i64 %33
  store i32 %19, ptr %34, align 4, !tbaa !29
  br label %.critedge

.critedge.loopexit:                               ; preds = %9
  %35 = getelementptr inbounds nuw i32, ptr %.val22, i64 %indvars.iv45
  %36 = load i32, ptr %35, align 4, !tbaa !29
  br label %.critedge

.critedge:                                        ; preds = %.critedge.loopexit, %3, %Vec_IntPush.exit
  %.1 = phi i32 [ %19, %Vec_IntPush.exit ], [ -1, %3 ], [ %36, %.critedge.loopexit ]
  %37 = getelementptr i8, ptr %1, i64 4
  %.val23.i38 = load i32, ptr %37, align 4, !tbaa !33
  %38 = icmp sgt i32 %.val23.i38, 0
  br i1 %38, label %.lr.ph.i.lr.ph, label %.loopexit

.lr.ph.i.lr.ph:                                   ; preds = %.critedge
  %39 = getelementptr i8, ptr %1, i64 8
  %40 = getelementptr i8, ptr %0, i64 8
  %.phi.trans.insert.i24 = getelementptr inbounds nuw i8, ptr %2, i64 8
  br label %.lr.ph.i

.lr.ph.i:                                         ; preds = %.lr.ph.i.lr.ph, %Vec_IntPush.exit29
  %.val23.i40 = phi i32 [ %.val23.i38, %.lr.ph.i.lr.ph ], [ %.val23.i, %Vec_IntPush.exit29 ]
  %.239 = phi i32 [ %.1, %.lr.ph.i.lr.ph ], [ %spec.select.i, %Vec_IntPush.exit29 ]
  %.val28.i = load ptr, ptr %39, align 8, !tbaa !35
  %.val29.i = load ptr, ptr %40, align 8, !tbaa !39
  %wide.trip.count.i = zext nneg i32 %.val23.i40 to i64
  br label %41

41:                                               ; preds = %57, %.lr.ph.i
  %indvars.iv.i = phi i64 [ 0, %.lr.ph.i ], [ %indvars.iv.next.i, %57 ]
  %42 = getelementptr inbounds nuw i32, ptr %.val28.i, i64 %indvars.iv.i
  %43 = load i32, ptr %42, align 4, !tbaa !29
  %44 = sext i32 %43 to i64
  %45 = getelementptr inbounds %struct.Vec_Int_t_, ptr %.val29.i, i64 %44
  %46 = getelementptr i8, ptr %45, i64 4
  %.val.i = load i32, ptr %46, align 4, !tbaa !33
  %47 = icmp eq i32 %.val.i, 0
  br i1 %47, label %57, label %48

48:                                               ; preds = %41
  %49 = getelementptr i8, ptr %45, i64 8
  %.val27.i = load ptr, ptr %49, align 8, !tbaa !35
  %50 = getelementptr inbounds nuw i8, ptr %.val27.i, i64 4
  %51 = load i32, ptr %50, align 4, !tbaa !29
  %52 = icmp eq i32 %51, %.239
  %53 = getelementptr inbounds nuw i8, ptr %.val27.i, i64 8
  %54 = load i32, ptr %53, align 4, !tbaa !29
  %..i = select i1 %52, i32 %54, i32 -1
  %55 = icmp eq i32 %54, %.239
  %spec.select.i = select i1 %55, i32 %51, i32 %..i
  %56 = icmp eq i32 %spec.select.i, -1
  br i1 %56, label %57, label %58

57:                                               ; preds = %48, %41
  %indvars.iv.next.i = add nuw nsw i64 %indvars.iv.i, 1
  %exitcond.not.i = icmp eq i64 %indvars.iv.next.i, %wide.trip.count.i
  br i1 %exitcond.not.i, label %.loopexit, label %41, !llvm.loop !71

58:                                               ; preds = %48
  %59 = getelementptr i8, ptr %45, i64 4
  store i32 0, ptr %59, align 4, !tbaa !33
  %60 = load i32, ptr %5, align 4, !tbaa !33
  %61 = load i32, ptr %2, align 8, !tbaa !34
  %62 = icmp eq i32 %60, %61
  br i1 %62, label %63, label %.Vec_IntGrow.exit10_crit_edge.i23

.Vec_IntGrow.exit10_crit_edge.i23:                ; preds = %58
  %.pre.i25 = load ptr, ptr %.phi.trans.insert.i24, align 8, !tbaa !35
  br label %Vec_IntPush.exit29

63:                                               ; preds = %58
  %64 = icmp slt i32 %60, 16
  br i1 %64, label %65, label %72

65:                                               ; preds = %63
  %66 = load ptr, ptr %.phi.trans.insert.i24, align 8, !tbaa !35
  %.not9.i.i27 = icmp eq ptr %66, null
  br i1 %.not9.i.i27, label %69, label %67

67:                                               ; preds = %65
  %68 = tail call dereferenceable_or_null(64) ptr @realloc(ptr noundef nonnull %66, i64 noundef 64) #20
  br label %Vec_IntGrow.exit.i28

69:                                               ; preds = %65
  %70 = tail call noalias dereferenceable_or_null(64) ptr @malloc(i64 noundef 64) #21
  br label %Vec_IntGrow.exit.i28

Vec_IntGrow.exit.i28:                             ; preds = %69, %67
  %71 = phi ptr [ %68, %67 ], [ %70, %69 ]
  store ptr %71, ptr %.phi.trans.insert.i24, align 8, !tbaa !35
  store i32 16, ptr %2, align 8, !tbaa !34
  br label %Vec_IntPush.exit29

72:                                               ; preds = %63
  %73 = shl nuw nsw i32 %60, 1
  %74 = load ptr, ptr %.phi.trans.insert.i24, align 8, !tbaa !35
  %.not9.i9.i26 = icmp eq ptr %74, null
  %75 = zext nneg i32 %73 to i64
  %76 = shl nuw nsw i64 %75, 2
  br i1 %.not9.i9.i26, label %79, label %77

77:                                               ; preds = %72
  %78 = tail call ptr @realloc(ptr noundef nonnull %74, i64 noundef %76) #20
  br label %81

79:                                               ; preds = %72
  %80 = tail call noalias ptr @malloc(i64 noundef %76) #21
  br label %81

81:                                               ; preds = %79, %77
  %82 = phi ptr [ %78, %77 ], [ %80, %79 ]
  store ptr %82, ptr %.phi.trans.insert.i24, align 8, !tbaa !35
  store i32 %73, ptr %2, align 8, !tbaa !34
  br label %Vec_IntPush.exit29

Vec_IntPush.exit29:                               ; preds = %.Vec_IntGrow.exit10_crit_edge.i23, %Vec_IntGrow.exit.i28, %81
  %83 = phi ptr [ %.pre.i25, %.Vec_IntGrow.exit10_crit_edge.i23 ], [ %82, %81 ], [ %71, %Vec_IntGrow.exit.i28 ]
  %84 = load i32, ptr %5, align 4, !tbaa !33
  %85 = add nsw i32 %84, 1
  store i32 %85, ptr %5, align 4, !tbaa !33
  %86 = sext i32 %84 to i64
  %87 = getelementptr inbounds i32, ptr %83, i64 %86
  store i32 %spec.select.i, ptr %87, align 4, !tbaa !29
  %.val23.i = load i32, ptr %37, align 4, !tbaa !33
  %88 = icmp sgt i32 %.val23.i, 0
  br i1 %88, label %.lr.ph.i, label %.loopexit, !llvm.loop !73

.loopexit:                                        ; preds = %Vec_IntPush.exit29, %57, %.critedge
  %89 = getelementptr inbounds nuw i8, ptr %4, i64 8
  %90 = load ptr, ptr %89, align 8, !tbaa !35
  %.not.i = icmp eq ptr %90, null
  br i1 %.not.i, label %Vec_IntFree.exit, label %91

91:                                               ; preds = %.loopexit
  tail call void @free(ptr noundef nonnull %90) #19
  br label %Vec_IntFree.exit

Vec_IntFree.exit:                                 ; preds = %.loopexit, %91
  tail call void @free(ptr noundef nonnull %4) #19
  ret void
}